; Function Attrs: nounwind sspstrong uwtable
define internal range(i64 1, 0) i64 @rb_file_s_chown(i32 noundef %0, ptr noundef readonly captures(none) %1, i64 %2) #0 {
  %4 = alloca %struct.chown_args, align 4
  call void @llvm.lifetime.start.p0(i64 8, ptr nonnull %4) #22
  %5 = icmp slt i32 %0, 2
  br i1 %5, label %6, label %rb_check_arity.exit

6:                                                ; preds = %3
  tail call void @rb_error_arity(i32 noundef %0, i32 noundef 2, i32 noundef -1) #24
  unreachable

rb_check_arity.exit:                              ; preds = %3
  %7 = getelementptr i8, ptr %1, i64 8
  %8 = load i64, ptr %1, align 8, !tbaa !12
  %9 = icmp eq i64 %8, 4
  br i1 %9, label %to_uid.exit, label %10

10:                                               ; preds = %rb_check_arity.exit
  %11 = tail call i64 @rb_num2uint(i64 noundef %8) #22
  %12 = trunc i64 %11 to i32
  br label %to_uid.exit

to_uid.exit:                                      ; preds = %rb_check_arity.exit, %10
  %.0.i = phi i32 [ %12, %10 ], [ -1, %rb_check_arity.exit ]
  store i32 %.0.i, ptr %4, align 4, !tbaa !231
  %13 = load i64, ptr %7, align 8, !tbaa !12
  %14 = icmp eq i64 %13, 4
  br i1 %14, label %to_gid.exit, label %15

15:                                               ; preds = %to_uid.exit
  %16 = tail call i64 @rb_num2uint(i64 noundef %13) #22
  %17 = trunc i64 %16 to i32
  br label %to_gid.exit

to_gid.exit:                                      ; preds = %to_uid.exit, %15
  %.0.i5 = phi i32 [ %17, %15 ], [ -1, %to_uid.exit ]
  %18 = getelementptr i8, ptr %1, i64 16
  %19 = add nsw i32 %0, -2
  %20 = getelementptr inbounds nuw i8, ptr %4, i64 4
  store i32 %.0.i5, ptr %20, align 4, !tbaa !233
  %21 = call fastcc i64 @apply2files(ptr noundef nonnull @chown_internal, i32 noundef %19, ptr noundef %18, ptr noundef nonnull %4)
  call void @llvm.lifetime.end.p0(i64 8, ptr nonnull %4) #22
  ret i64 %21
}